; Function Attrs: mustprogress nofree norecurse nosync nounwind willreturn memory(write, argmem: readwrite, inaccessiblemem: none) uwtable
define hidden void @_ZN19metadata_Relocation12pack_data_toEP11CodeSection(ptr nocapture noundef nonnull readonly align 8 dereferenceable(24) %0, ptr nocapture noundef %1) unnamed_addr #12 align 2 {
  %3 = getelementptr inbounds i8, ptr %1, i64 40
  %4 = load ptr, ptr %3, align 8
  %5 = getelementptr inbounds i8, ptr %0, i64 20
  %6 = load i32, ptr %5, align 4
  %.not.i = icmp eq i32 %6, 0
  br i1 %.not.i, label %_ZN10Relocation13pack_1_int_toEPsi.exit, label %7

7:                                                ; preds = %2
  %8 = add i32 %6, 32768
  %9 = icmp ult i32 %8, 65536
  br i1 %9, label %10, label %12

10:                                               ; preds = %7
  %11 = getelementptr inbounds i8, ptr %4, i64 2
  br label %_ZN10Relocation11add_var_intEPsi.exit.i

12:                                               ; preds = %7
  %13 = lshr i32 %6, 16
  %14 = getelementptr inbounds i8, ptr %4, i64 2
  %15 = trunc i32 %6 to i16
  %16 = getelementptr inbounds i8, ptr %4, i64 4
  store i16 %15, ptr %14, align 2
  br label %_ZN10Relocation11add_var_intEPsi.exit.i

_ZN10Relocation11add_var_intEPsi.exit.i:          ; preds = %12, %10
  %.sink.in.i.i = phi i32 [ %6, %10 ], [ %13, %12 ]
  %.0.i.i = phi ptr [ %11, %10 ], [ %16, %12 ]
  %.sink.i.i = trunc i32 %.sink.in.i.i to i16
  store i16 %.sink.i.i, ptr %4, align 2
  br label %_ZN10Relocation13pack_1_int_toEPsi.exit

_ZN10Relocation13pack_1_int_toEPsi.exit:          ; preds = %2, %_ZN10Relocation11add_var_intEPsi.exit.i
  %.0.i = phi ptr [ %.0.i.i, %_ZN10Relocation11add_var_intEPsi.exit.i ], [ %4, %2 ]
  store ptr %.0.i, ptr %3, align 8
  ret void
}